; Function Attrs: nounwind uwtable
define internal void @write_stderr(ptr noundef %0, ...) unnamed_addr #5 {
  %2 = alloca [1 x %struct.__va_list_tag], align 16
  call void @llvm.lifetime.start.p0(i64 24, ptr nonnull %2) #17
  call void @llvm.va_start.p0(ptr nonnull %2)
  %3 = load ptr, ptr @stderr, align 8
  %4 = call i32 @pg_vfprintf(ptr noundef %3, ptr noundef %0, ptr noundef nonnull %2) #17
  call void @llvm.va_end.p0(ptr nonnull %2)
  call void @llvm.lifetime.end.p0(i64 24, ptr nonnull %2) #17
  ret void
}